target datalayout = "e-m:e-p270:32:32-p271:32:32-p272:64:64-i64:64-i128:128-f80:128-n8:16:32:64-S128"
target triple = "x86_64-pc-linux-gnu"

%"class.sls::bvect" = type <{ %class.svector, i32, i32, i32, [4 x i8] }>
%class.svector = type { %class.vector }
%class.vector = type { ptr }
%class.mpn_manager = type { i8 }
%"class.sls::bv_valuation" = type { %"class.sls::bvect", %"class.sls::bvect", %"class.sls::bvect", %"class.sls::bvect", %"class.sls::bvect", %"class.sls::bvect", i32, i32, i32, i32, %"class.sls::bvect" }

; Function Attrs: mustprogress nounwind uwtable
define linkonce_odr hidden noundef i32 @_ZNK6vectorIjLb0EjE8capacityEv(ptr noundef nonnull align 8 dereferenceable(8) %0) #5 comdat align 2 {
  %2 = alloca i32, align 4
  %3 = alloca ptr, align 8
  store ptr %0, ptr %3, align 8, !tbaa !17
  %4 = load ptr, ptr %3, align 8
  %5 = getelementptr inbounds nuw %class.vector, ptr %4, i32 0, i32 0
  %6 = load ptr, ptr %5, align 8, !tbaa !19
  %7 = icmp eq ptr %6, null
  br i1 %7, label %8, label %9

8:                                                ; preds = %1
  store i32 0, ptr %2, align 4
  br label %14

9:                                                ; preds = %1
  %10 = getelementptr inbounds nuw %class.vector, ptr %4, i32 0, i32 0
  %11 = load ptr, ptr %10, align 8, !tbaa !19
  %12 = getelementptr inbounds i32, ptr %11, i64 -2
  %13 = load i32, ptr %12, align 4, !tbaa !8
  store i32 %13, ptr %2, align 4
  br label %14

14:                                               ; preds = %9, %8
  %15 = load i32, ptr %2, align 4
  ret i32 %15
}

; Function Attrs: mustprogress nounwind uwtable
define linkonce_odr hidden void @_ZN6vectorIjLb0EjE6shrinkEj(ptr noundef nonnull align 8 dereferenceable(8) %0, i32 noundef %1) #5 comdat align 2 {
  %3 = alloca ptr, align 8
  %4 = alloca i32, align 4
  store ptr %0, ptr %3, align 8, !tbaa !17
  store i32 %1, ptr %4, align 4, !tbaa !8
  %5 = load ptr, ptr %3, align 8
  %6 = getelementptr inbounds nuw %class.vector, ptr %5, i32 0, i32 0
  %7 = load ptr, ptr %6, align 8, !tbaa !19
  %8 = icmp ne ptr %7, null
  br i1 %8, label %9, label %14

9:                                                ; preds = %2
  %10 = load i32, ptr %4, align 4, !tbaa !8
  %11 = getelementptr inbounds nuw %class.vector, ptr %5, i32 0, i32 0
  %12 = load ptr, ptr %11, align 8, !tbaa !19
  %13 = getelementptr inbounds i32, ptr %12, i64 -1
  store i32 %10, ptr %13, align 4, !tbaa !8
  br label %15

14:                                               ; preds = %2
  br label %15

15:                                               ; preds = %14, %9
  ret void
}

; Function Attrs: mustprogress uwtable
define linkonce_odr hidden void @_ZN6vectorIjLb0EjE6resizeEj(ptr noundef nonnull align 8 dereferenceable(8) %0, i32 noundef %1) #4 comdat align 2 {
  %3 = alloca ptr, align 8
  %4 = alloca i32, align 4
  %5 = alloca i32, align 4
  %6 = alloca i32, align 4
  %7 = alloca ptr, align 8
  %8 = alloca ptr, align 8
  store ptr %0, ptr %3, align 8, !tbaa !17
  store i32 %1, ptr %4, align 4, !tbaa !8
  %9 = load ptr, ptr %3, align 8
  call void @llvm.lifetime.start.p0(i64 4, ptr %5) #3
  %10 = call noundef i32 @_ZNK6vectorIjLb0EjE4sizeEv(ptr noundef nonnull align 8 dereferenceable(8) %9)
  store i32 %10, ptr %5, align 4, !tbaa !8
  %11 = load i32, ptr %4, align 4, !tbaa !8
  %12 = load i32, ptr %5, align 4, !tbaa !8
  %13 = icmp ule i32 %11, %12
  br i1 %13, label %14, label %16

14:                                               ; preds = %2
  %15 = load i32, ptr %4, align 4, !tbaa !8
  call void @_ZN6vectorIjLb0EjE6shrinkEj(ptr noundef nonnull align 8 dereferenceable(8) %9, i32 noundef %15)
  store i32 1, ptr %6, align 4
  br label %47

16:                                               ; preds = %2
  br label %17

17:                                               ; preds = %21, %16
  %18 = load i32, ptr %4, align 4, !tbaa !8
  %19 = call noundef i32 @_ZNK6vectorIjLb0EjE8capacityEv(ptr noundef nonnull align 8 dereferenceable(8) %9)
  %20 = icmp ugt i32 %18, %19
  br i1 %20, label %21, label %22

21:                                               ; preds = %17
  call void @_ZN6vectorIjLb0EjE13expand_vectorEv(ptr noundef nonnull align 8 dereferenceable(8) %9)
  br label %17, !llvm.loop !154

22:                                               ; preds = %17
  %23 = load i32, ptr %4, align 4, !tbaa !8
  %24 = getelementptr inbounds nuw %class.vector, ptr %9, i32 0, i32 0
  %25 = load ptr, ptr %24, align 8, !tbaa !19
  %26 = getelementptr inbounds i32, ptr %25, i64 -1
  store i32 %23, ptr %26, align 4, !tbaa !8
  call void @llvm.lifetime.start.p0(i64 8, ptr %7) #3
  %27 = getelementptr inbounds nuw %class.vector, ptr %9, i32 0, i32 0
  %28 = load ptr, ptr %27, align 8, !tbaa !19
  %29 = load i32, ptr %5, align 4, !tbaa !8
  %30 = zext i32 %29 to i64
  %31 = getelementptr inbounds nuw i32, ptr %28, i64 %30
  store ptr %31, ptr %7, align 8, !tbaa !145
  call void @llvm.lifetime.start.p0(i64 8, ptr %8) #3
  %32 = getelementptr inbounds nuw %class.vector, ptr %9, i32 0, i32 0
  %33 = load ptr, ptr %32, align 8, !tbaa !19
  %34 = load i32, ptr %4, align 4, !tbaa !8
  %35 = zext i32 %34 to i64
  %36 = getelementptr inbounds nuw i32, ptr %33, i64 %35
  store ptr %36, ptr %8, align 8, !tbaa !145
  br label %37

37:                                               ; preds = %43, %22
  %38 = load ptr, ptr %7, align 8, !tbaa !145
  %39 = load ptr, ptr %8, align 8, !tbaa !145
  %40 = icmp ne ptr %38, %39
  br i1 %40, label %41, label %46

41:                                               ; preds = %37
  %42 = load ptr, ptr %7, align 8, !tbaa !145
  store i32 0, ptr %42, align 4, !tbaa !8
  br label %43

43:                                               ; preds = %41
  %44 = load ptr, ptr %7, align 8, !tbaa !145
  %45 = getelementptr inbounds nuw i32, ptr %44, i32 1
  store ptr %45, ptr %7, align 8, !tbaa !145
  br label %37, !llvm.loop !155

46:                                               ; preds = %37
  call void @llvm.lifetime.end.p0(i64 8, ptr %8) #3
  call void @llvm.lifetime.end.p0(i64 8, ptr %7) #3
  store i32 0, ptr %6, align 4
  br label %47

47:                                               ; preds = %46, %14
  call void @llvm.lifetime.end.p0(i64 4, ptr %5) #3
  %48 = load i32, ptr %6, align 4
  switch i32 %48, label %50 [
    i32 0, label %49
    i32 1, label %49
  ]

49:                                               ; preds = %47, %47
  ret void

50:                                               ; preds = %47
  unreachable
}

; Function Attrs: mustprogress nounwind uwtable
define linkonce_odr hidden noundef i32 @_ZNK6vectorIjLb0EjE4sizeEv(ptr noundef nonnull align 8 dereferenceable(8) %0) #5 comdat align 2 {
  %2 = alloca i32, align 4
  %3 = alloca ptr, align 8
  store ptr %0, ptr %3, align 8, !tbaa !17
  %4 = load ptr, ptr %3, align 8
  %5 = getelementptr inbounds nuw %class.vector, ptr %4, i32 0, i32 0
  %6 = load ptr, ptr %5, align 8, !tbaa !19
  %7 = icmp eq ptr %6, null
  br i1 %7, label %8, label %9

8:                                                ; preds = %1
  store i32 0, ptr %2, align 4
  br label %14

9:                                                ; preds = %1
  %10 = getelementptr inbounds nuw %class.vector, ptr %4, i32 0, i32 0
  %11 = load ptr, ptr %10, align 8, !tbaa !19
  %12 = getelementptr inbounds i32, ptr %11, i64 -1
  %13 = load i32, ptr %12, align 4, !tbaa !8
  store i32 %13, ptr %2, align 4
  br label %14

14:                                               ; preds = %9, %8
  %15 = load i32, ptr %2, align 4
  ret i32 %15
}

; Function Attrs: mustprogress nounwind uwtable
define linkonce_odr hidden noundef ptr @_ZNK6vectorIjLb0EjE4dataEv(ptr noundef nonnull align 8 dereferenceable(8) %0) #5 comdat align 2 {
  %2 = alloca ptr, align 8
  store ptr %0, ptr %2, align 8, !tbaa !17
  %3 = load ptr, ptr %2, align 8
  %4 = getelementptr inbounds nuw %class.vector, ptr %3, i32 0, i32 0
  %5 = load ptr, ptr %4, align 8, !tbaa !19
  ret ptr %5
}

; Function Attrs: mustprogress uwtable
define linkonce_odr hidden void @_ZN6vectorIjLb0EjE7reserveEj(ptr noundef nonnull align 8 dereferenceable(8) %0, i32 noundef %1) #4 comdat align 2 {
  %3 = alloca ptr, align 8
  %4 = alloca i32, align 4
  store ptr %0, ptr %3, align 8, !tbaa !17
  store i32 %1, ptr %4, align 4, !tbaa !8
  %5 = load ptr, ptr %3, align 8
  %6 = load i32, ptr %4, align 4, !tbaa !8
  %7 = call noundef i32 @_ZNK6vectorIjLb0EjE4sizeEv(ptr noundef nonnull align 8 dereferenceable(8) %5)
  %8 = icmp ugt i32 %6, %7
  br i1 %8, label %9, label %11

9:                                                ; preds = %2
  %10 = load i32, ptr %4, align 4, !tbaa !8
  call void @_ZN6vectorIjLb0EjE6resizeEj(ptr noundef nonnull align 8 dereferenceable(8) %5, i32 noundef %10)
  br label %11

11:                                               ; preds = %9, %2
  ret void
}

; Function Attrs: mustprogress nounwind uwtable
define linkonce_odr hidden noundef nonnull align 4 dereferenceable(4) ptr @_ZN6vectorIjLb0EjEixEj(ptr noundef nonnull align 8 dereferenceable(8) %0, i32 noundef %1) #5 comdat align 2 {
  %3 = alloca ptr, align 8
  %4 = alloca i32, align 4
  store ptr %0, ptr %3, align 8, !tbaa !17
  store i32 %1, ptr %4, align 4, !tbaa !8
  %5 = load ptr, ptr %3, align 8
  %6 = getelementptr inbounds nuw %class.vector, ptr %5, i32 0, i32 0
  %7 = load ptr, ptr %6, align 8, !tbaa !19
  %8 = load i32, ptr %4, align 4, !tbaa !8
  %9 = zext i32 %8 to i64
  %10 = getelementptr inbounds nuw i32, ptr %7, i64 %9
  ret ptr %10
}

; Function Attrs: mustprogress nounwind uwtable
define linkonce_odr hidden noundef nonnull align 4 dereferenceable(4) ptr @_ZNK6vectorIjLb0EjEixEj(ptr noundef nonnull align 8 dereferenceable(8) %0, i32 noundef %1) #5 comdat align 2 {
  %3 = alloca ptr, align 8
  %4 = alloca i32, align 4
  store ptr %0, ptr %3, align 8, !tbaa !17
  store i32 %1, ptr %4, align 4, !tbaa !8
  %5 = load ptr, ptr %3, align 8
  %6 = getelementptr inbounds nuw %class.vector, ptr %5, i32 0, i32 0
  %7 = load ptr, ptr %6, align 8, !tbaa !19
  %8 = load i32, ptr %4, align 4, !tbaa !8
  %9 = zext i32 %8 to i64
  %10 = getelementptr inbounds nuw i32, ptr %7, i64 %9
  ret ptr %10
}

; Function Attrs: mustprogress uwtable
define hidden noundef zeroext i1 @_ZN3slsgtERKNS_5bvectES2_(ptr noundef nonnull align 8 dereferenceable(20) %0, ptr noundef nonnull align 8 dereferenceable(20) %1) #4 {
  %3 = alloca ptr, align 8
  %4 = alloca ptr, align 8
  %5 = alloca %class.mpn_manager, align 1
  store ptr %0, ptr %3, align 8, !tbaa !3
  store ptr %1, ptr %4, align 8, !tbaa !3
  call void @llvm.lifetime.start.p0(i64 1, ptr %5) #3
  %6 = load ptr, ptr %3, align 8, !tbaa !3
  %7 = call noundef ptr @_ZNK6vectorIjLb0EjE4dataEv(ptr noundef nonnull align 8 dereferenceable(8) %6)
  %8 = load ptr, ptr %3, align 8, !tbaa !3
  %9 = getelementptr inbounds nuw %"class.sls::bvect", ptr %8, i32 0, i32 2
  %10 = load i32, ptr %9, align 4, !tbaa !15
  %11 = load ptr, ptr %4, align 8, !tbaa !3
  %12 = call noundef ptr @_ZNK6vectorIjLb0EjE4dataEv(ptr noundef nonnull align 8 dereferenceable(8) %11)
  %13 = load ptr, ptr %3, align 8, !tbaa !3
  %14 = getelementptr inbounds nuw %"class.sls::bvect", ptr %13, i32 0, i32 2
  %15 = load i32, ptr %14, align 4, !tbaa !15
  %16 = call noundef i32 @_ZNK11mpn_manager7compareEPKjjS1_j(ptr noundef nonnull align 1 dereferenceable(1) %5, ptr noundef %7, i32 noundef %10, ptr noundef %12, i32 noundef %15)
  %17 = icmp sgt i32 %16, 0
  call void @llvm.lifetime.end.p0(i64 1, ptr %5) #3
  ret i1 %17
}

; Function Attrs: mustprogress uwtable
define hidden void @_ZN3sls5bvect6set_bwEj(ptr noundef nonnull align 8 dereferenceable(20) %0, i32 noundef %1) #4 align 2 {
  %3 = alloca ptr, align 8
  %4 = alloca i32, align 4
  store ptr %0, ptr %3, align 8, !tbaa !3
  store i32 %1, ptr %4, align 4, !tbaa !8
  %5 = load ptr, ptr %3, align 8
  %6 = load i32, ptr %4, align 4, !tbaa !8
  %7 = getelementptr inbounds nuw %"class.sls::bvect", ptr %5, i32 0, i32 1
  store i32 %6, ptr %7, align 8, !tbaa !10
  %8 = load i32, ptr %4, align 4, !tbaa !8
  %9 = zext i32 %8 to i64
  %10 = add i64 %9, 32
  %11 = sub i64 %10, 1
  %12 = udiv i64 %11, 32
  %13 = trunc i64 %12 to i32
  %14 = getelementptr inbounds nuw %"class.sls::bvect", ptr %5, i32 0, i32 2
  store i32 %13, ptr %14, align 4, !tbaa !15
  %15 = load i32, ptr %4, align 4, !tbaa !8
  %16 = zext i32 %15 to i64
  %17 = urem i64 %16, 32
  %18 = trunc i64 %17 to i32
  %19 = shl i32 1, %18
  %20 = sub nsw i32 %19, 1
  %21 = getelementptr inbounds nuw %"class.sls::bvect", ptr %5, i32 0, i32 3
  store i32 %20, ptr %21, align 8, !tbaa !16
  %22 = getelementptr inbounds nuw %"class.sls::bvect", ptr %5, i32 0, i32 3
  %23 = load i32, ptr %22, align 8, !tbaa !16
  %24 = icmp eq i32 %23, 0
  br i1 %24, label %25, label %27

25:                                               ; preds = %2
  %26 = getelementptr inbounds nuw %"class.sls::bvect", ptr %5, i32 0, i32 3
  store i32 -1, ptr %26, align 8, !tbaa !16
  br label %27

27:                                               ; preds = %25, %2
  %28 = getelementptr inbounds nuw %"class.sls::bvect", ptr %5, i32 0, i32 2
  %29 = load i32, ptr %28, align 4, !tbaa !15
  %30 = add i32 %29, 1
  call void @_ZN6vectorIjLb0EjE7reserveEj(ptr noundef nonnull align 8 dereferenceable(8) %5, i32 noundef %30)
  ret void
}

; Function Attrs: mustprogress uwtable
define linkonce_odr hidden void @_ZNK3sls5bvect7copy_toEjRS0_(ptr noundef nonnull align 8 dereferenceable(20) %0, i32 noundef %1, ptr noundef nonnull align 8 dereferenceable(20) %2) #4 comdat align 2 {
  %4 = alloca ptr, align 8
  %5 = alloca i32, align 4
  %6 = alloca ptr, align 8
  %7 = alloca i32, align 4
  store ptr %0, ptr %4, align 8, !tbaa !3
  store i32 %1, ptr %5, align 4, !tbaa !8
  store ptr %2, ptr %6, align 8, !tbaa !3
  %8 = load ptr, ptr %4, align 8
  call void @llvm.lifetime.start.p0(i64 4, ptr %7) #3
  store i32 0, ptr %7, align 4, !tbaa !8
  br label %9

9:                                                ; preds = %21, %3
  %10 = load i32, ptr %7, align 4, !tbaa !8
  %11 = load i32, ptr %5, align 4, !tbaa !8
  %12 = icmp ult i32 %10, %11
  br i1 %12, label %14, label %13

13:                                               ; preds = %9
  call void @llvm.lifetime.end.p0(i64 4, ptr %7) #3
  br label %24

14:                                               ; preds = %9
  %15 = load i32, ptr %7, align 4, !tbaa !8
  %16 = call noundef nonnull align 4 dereferenceable(4) ptr @_ZNK6vectorIjLb0EjEixEj(ptr noundef nonnull align 8 dereferenceable(8) %8, i32 noundef %15)
  %17 = load i32, ptr %16, align 4, !tbaa !8
  %18 = load ptr, ptr %6, align 8, !tbaa !3
  %19 = load i32, ptr %7, align 4, !tbaa !8
  %20 = call noundef nonnull align 4 dereferenceable(4) ptr @_ZN6vectorIjLb0EjEixEj(ptr noundef nonnull align 8 dereferenceable(8) %18, i32 noundef %19)
  store i32 %17, ptr %20, align 4, !tbaa !8
  br label %21

21:                                               ; preds = %14
  %22 = load i32, ptr %7, align 4, !tbaa !8
  %23 = add i32 %22, 1
  store i32 %23, ptr %7, align 4, !tbaa !8
  br label %9, !llvm.loop !50

24:                                               ; preds = %13
  ret void
}

; Function Attrs: mustprogress uwtable
define hidden noundef zeroext i1 @_ZNK3sls12bv_valuation12get_at_leastERKNS_5bvectERS1_(ptr noundef nonnull align 8 dereferenceable(184) %0, ptr noundef nonnull align 8 dereferenceable(20) %1, ptr noundef nonnull align 8 dereferenceable(20) %2) #4 align 2 {
  %4 = alloca i1, align 1
  %5 = alloca ptr, align 8
  %6 = alloca ptr, align 8
  %7 = alloca ptr, align 8
  store ptr %0, ptr %5, align 8, !tbaa !53
  store ptr %1, ptr %6, align 8, !tbaa !3
  store ptr %2, ptr %7, align 8, !tbaa !3
  %8 = load ptr, ptr %5, align 8
  %9 = load ptr, ptr %6, align 8, !tbaa !3
  %10 = getelementptr inbounds nuw %"class.sls::bv_valuation", ptr %8, i32 0, i32 9
  %11 = load i32, ptr %10, align 4, !tbaa !57
  %12 = load ptr, ptr %7, align 8, !tbaa !3
  call void @_ZNK3sls5bvect7copy_toEjRS0_(ptr noundef nonnull align 8 dereferenceable(20) %9, i32 noundef %11, ptr noundef nonnull align 8 dereferenceable(20) %12)
  %13 = load ptr, ptr %7, align 8, !tbaa !3
  %14 = getelementptr inbounds nuw %"class.sls::bv_valuation", ptr %8, i32 0, i32 8
  %15 = load i32, ptr %14, align 8, !tbaa !60
  call void @_ZN3sls5bvect6set_bwEj(ptr noundef nonnull align 8 dereferenceable(20) %13, i32 noundef %15)
  %16 = load ptr, ptr %7, align 8, !tbaa !3
  call void @_ZNK3sls12bv_valuation12inf_feasibleERNS_5bvectE(ptr noundef nonnull align 8 dereferenceable(184) %8, ptr noundef nonnull align 8 dereferenceable(20) %16)
  %17 = load ptr, ptr %7, align 8, !tbaa !3
  %18 = call noundef zeroext i1 @_ZNK3sls12bv_valuation7can_setERKNS_5bvectE(ptr noundef nonnull align 8 dereferenceable(184) %8, ptr noundef nonnull align 8 dereferenceable(20) %17)
  br i1 %18, label %19, label %20

19:                                               ; preds = %3
  store i1 true, ptr %4, align 1
  br label %30

20:                                               ; preds = %3
  %21 = load ptr, ptr %7, align 8, !tbaa !3
  %22 = getelementptr inbounds nuw %"class.sls::bv_valuation", ptr %8, i32 0, i32 1
  %23 = call noundef zeroext i1 @_ZN3slsgtERKNS_5bvectES2_(ptr noundef nonnull align 8 dereferenceable(20) %21, ptr noundef nonnull align 8 dereferenceable(20) %22)
  br i1 %23, label %24, label %25

24:                                               ; preds = %20
  store i1 false, ptr %4, align 1
  br label %30

25:                                               ; preds = %20
  %26 = getelementptr inbounds nuw %"class.sls::bv_valuation", ptr %8, i32 0, i32 1
  %27 = getelementptr inbounds nuw %"class.sls::bv_valuation", ptr %8, i32 0, i32 9
  %28 = load i32, ptr %27, align 4, !tbaa !57
  %29 = load ptr, ptr %7, align 8, !tbaa !3
  call void @_ZNK3sls5bvect7copy_toEjRS0_(ptr noundef nonnull align 8 dereferenceable(20) %26, i32 noundef %28, ptr noundef nonnull align 8 dereferenceable(20) %29)
  store i1 true, ptr %4, align 1
  br label %30

30:                                               ; preds = %25, %24, %19
  %31 = load i1, ptr %4, align 1
  ret i1 %31
}