; Function Attrs: mustprogress uwtable
define hidden noundef zeroext i1 @_ZNK3sls12bv_valuation12get_at_leastERKNS_5bvectERS1_(ptr noundef nonnull readonly align 8 captures(none) dereferenceable(184) %0, ptr noundef nonnull readonly align 8 captures(none) dereferenceable(20) %1, ptr noundef nonnull align 8 dereferenceable(20) %2) local_unnamed_addr #3 align 2 {
  %4 = alloca %class.mpn_manager, align 1
  %5 = getelementptr inbounds nuw i8, ptr %0, i64 156
  %6 = load i32, ptr %5, align 4, !tbaa !68
  %.not.i = icmp eq i32 %6, 0
  %.pre = load ptr, ptr %2, align 8, !tbaa !14
  br i1 %.not.i, label %_ZNK3sls5bvect7copy_toEjRS0_.exit, label %.lr.ph.i

.lr.ph.i:                                         ; preds = %3
  %7 = load ptr, ptr %1, align 8, !tbaa !14
  %wide.trip.count.i = zext i32 %6 to i64
  br label %8

8:                                                ; preds = %8, %.lr.ph.i
  %indvars.iv.i = phi i64 [ 0, %.lr.ph.i ], [ %indvars.iv.next.i, %8 ]
  %9 = getelementptr inbounds nuw i32, ptr %7, i64 %indvars.iv.i
  %10 = load i32, ptr %9, align 4, !tbaa !15
  %11 = getelementptr inbounds nuw i32, ptr %.pre, i64 %indvars.iv.i
  store i32 %10, ptr %11, align 4, !tbaa !15
  %indvars.iv.next.i = add nuw nsw i64 %indvars.iv.i, 1
  %exitcond.not.i = icmp eq i64 %indvars.iv.next.i, %wide.trip.count.i
  br i1 %exitcond.not.i, label %_ZNK3sls5bvect7copy_toEjRS0_.exit, label %8, !llvm.loop !61

_ZNK3sls5bvect7copy_toEjRS0_.exit:                ; preds = %8, %3
  %12 = getelementptr inbounds nuw i8, ptr %0, i64 152
  %13 = load i32, ptr %12, align 8, !tbaa !67
  %14 = getelementptr inbounds nuw i8, ptr %2, i64 8
  store i32 %13, ptr %14, align 8, !tbaa !3
  %15 = zext i32 %13 to i64
  %16 = add nuw nsw i64 %15, 31
  %17 = lshr i64 %16, 5
  %18 = trunc nuw nsw i64 %17 to i32
  %19 = getelementptr inbounds nuw i8, ptr %2, i64 12
  store i32 %18, ptr %19, align 4, !tbaa !12
  %20 = and i32 %13, 31
  %notmask.i = shl nsw i32 -1, %20
  %21 = xor i32 %notmask.i, -1
  %22 = icmp eq i32 %20, 0
  %spec.select.i = select i1 %22, i32 -1, i32 %21
  %23 = getelementptr inbounds nuw i8, ptr %2, i64 16
  store i32 %spec.select.i, ptr %23, align 8, !tbaa !13
  %24 = add nuw nsw i32 %18, 1
  %25 = icmp eq ptr %.pre, null
  br i1 %25, label %_ZNK6vectorIjLb0EjE4sizeEv.exit.i.i.i.preheader, label %_ZNK6vectorIjLb0EjE4sizeEv.exit.thread.i.i

_ZNK6vectorIjLb0EjE4sizeEv.exit.thread.i.i:       ; preds = %_ZNK3sls5bvect7copy_toEjRS0_.exit
  %26 = getelementptr inbounds i8, ptr %.pre, i64 -4
  %27 = load i32, ptr %26, align 4, !tbaa !15
  %.not.i9 = icmp ugt i32 %27, %18
  br i1 %.not.i9, label %_ZN3sls5bvect6set_bwEj.exit, label %_ZNK6vectorIjLb0EjE4sizeEv.exit.i.i.i.preheader

_ZNK6vectorIjLb0EjE4sizeEv.exit.i.i.i.preheader:  ; preds = %_ZNK3sls5bvect7copy_toEjRS0_.exit, %_ZNK6vectorIjLb0EjE4sizeEv.exit.thread.i.i
  %.ph = phi ptr [ %.pre, %_ZNK6vectorIjLb0EjE4sizeEv.exit.thread.i.i ], [ null, %_ZNK3sls5bvect7copy_toEjRS0_.exit ]
  %.0.i16.i.i.i.ph = phi i32 [ %27, %_ZNK6vectorIjLb0EjE4sizeEv.exit.thread.i.i ], [ 0, %_ZNK3sls5bvect7copy_toEjRS0_.exit ]
  br label %_ZNK6vectorIjLb0EjE4sizeEv.exit.i.i.i

_ZNK6vectorIjLb0EjE4sizeEv.exit.i.i.i:            ; preds = %_ZNK6vectorIjLb0EjE4sizeEv.exit.i.i.i.preheader, %_ZNK6vectorIjLb0EjE8capacityEv.exit.thread.i.i.i
  %28 = phi ptr [ %.pr.pre.i.i.i, %_ZNK6vectorIjLb0EjE8capacityEv.exit.thread.i.i.i ], [ %.ph, %_ZNK6vectorIjLb0EjE4sizeEv.exit.i.i.i.preheader ]
  %29 = icmp eq ptr %28, null
  br i1 %29, label %_ZNK6vectorIjLb0EjE8capacityEv.exit.thread.i.i.i, label %_ZNK6vectorIjLb0EjE8capacityEv.exit.i.i.i

_ZNK6vectorIjLb0EjE8capacityEv.exit.i.i.i:        ; preds = %_ZNK6vectorIjLb0EjE4sizeEv.exit.i.i.i
  %30 = getelementptr inbounds i8, ptr %28, i64 -8
  %31 = load i32, ptr %30, align 4, !tbaa !15
  %.not3.i = icmp ugt i32 %31, %18
  br i1 %.not3.i, label %32, label %_ZNK6vectorIjLb0EjE8capacityEv.exit.thread.i.i.i

_ZNK6vectorIjLb0EjE8capacityEv.exit.thread.i.i.i: ; preds = %_ZNK6vectorIjLb0EjE8capacityEv.exit.i.i.i, %_ZNK6vectorIjLb0EjE4sizeEv.exit.i.i.i
  tail call void @_ZN6vectorIjLb0EjE13expand_vectorEv(ptr noundef nonnull align 8 dereferenceable(20) %2)
  %.pr.pre.i.i.i = load ptr, ptr %2, align 8, !tbaa !14
  br label %_ZNK6vectorIjLb0EjE4sizeEv.exit.i.i.i, !llvm.loop !16

32:                                               ; preds = %_ZNK6vectorIjLb0EjE8capacityEv.exit.i.i.i
  %33 = getelementptr inbounds i8, ptr %28, i64 -4
  store i32 %24, ptr %33, align 4, !tbaa !15
  %.not1218.i.i.i = icmp eq i32 %.0.i16.i.i.i.ph, %24
  br i1 %.not1218.i.i.i, label %_ZN3sls5bvect6set_bwEj.exit, label %.lr.ph.preheader.i.i.i

.lr.ph.preheader.i.i.i:                           ; preds = %32
  %34 = zext nneg i32 %24 to i64
  %35 = zext i32 %.0.i16.i.i.i.ph to i64
  %36 = getelementptr i32, ptr %28, i64 %35
  %37 = sub nsw i64 %34, %35
  %38 = shl nsw i64 %37, 2
  tail call void @llvm.memset.p0.i64(ptr align 4 %36, i8 0, i64 %38, i1 false), !tbaa !15
  br label %_ZN3sls5bvect6set_bwEj.exit

_ZN3sls5bvect6set_bwEj.exit:                      ; preds = %_ZNK6vectorIjLb0EjE4sizeEv.exit.thread.i.i, %32, %.lr.ph.preheader.i.i.i
  tail call void @_ZNK3sls12bv_valuation12inf_feasibleERNS_5bvectE(ptr noundef nonnull align 8 dereferenceable(184) %0, ptr noundef nonnull align 8 dereferenceable(20) %2)
  %39 = tail call noundef zeroext i1 @_ZNK3sls12bv_valuation7can_setERKNS_5bvectE(ptr noundef nonnull align 8 dereferenceable(184) %0, ptr noundef nonnull align 8 dereferenceable(20) %2)
  br i1 %39, label %_ZNK3sls5bvect7copy_toEjRS0_.exit16, label %40

40:                                               ; preds = %_ZN3sls5bvect6set_bwEj.exit
  %41 = getelementptr inbounds nuw i8, ptr %0, i64 24
  call void @llvm.lifetime.start.p0(i64 1, ptr nonnull %4) #29
  %42 = load ptr, ptr %2, align 8, !tbaa !14
  %43 = load i32, ptr %19, align 4, !tbaa !12
  %44 = load ptr, ptr %41, align 8, !tbaa !14
  %45 = call noundef i32 @_ZNK11mpn_manager7compareEPKjjS1_j(ptr noundef nonnull align 1 dereferenceable(1) %4, ptr noundef %42, i32 noundef %43, ptr noundef %44, i32 noundef %43)
  %46 = icmp sgt i32 %45, 0
  call void @llvm.lifetime.end.p0(i64 1, ptr nonnull %4) #29
  br i1 %46, label %_ZNK3sls5bvect7copy_toEjRS0_.exit16, label %47

47:                                               ; preds = %40
  %48 = load i32, ptr %5, align 4, !tbaa !68
  %.not.i10 = icmp eq i32 %48, 0
  br i1 %.not.i10, label %_ZNK3sls5bvect7copy_toEjRS0_.exit16, label %.lr.ph.i11

.lr.ph.i11:                                       ; preds = %47
  %49 = load ptr, ptr %41, align 8, !tbaa !14
  %50 = load ptr, ptr %2, align 8, !tbaa !14
  %wide.trip.count.i12 = zext i32 %48 to i64
  br label %51

51:                                               ; preds = %51, %.lr.ph.i11
  %indvars.iv.i13 = phi i64 [ 0, %.lr.ph.i11 ], [ %indvars.iv.next.i14, %51 ]
  %52 = getelementptr inbounds nuw i32, ptr %49, i64 %indvars.iv.i13
  %53 = load i32, ptr %52, align 4, !tbaa !15
  %54 = getelementptr inbounds nuw i32, ptr %50, i64 %indvars.iv.i13
  store i32 %53, ptr %54, align 4, !tbaa !15
  %indvars.iv.next.i14 = add nuw nsw i64 %indvars.iv.i13, 1
  %exitcond.not.i15 = icmp eq i64 %indvars.iv.next.i14, %wide.trip.count.i12
  br i1 %exitcond.not.i15, label %_ZNK3sls5bvect7copy_toEjRS0_.exit16, label %51, !llvm.loop !61

_ZNK3sls5bvect7copy_toEjRS0_.exit16:              ; preds = %51, %47, %40, %_ZN3sls5bvect6set_bwEj.exit
  %.0 = phi i1 [ true, %_ZN3sls5bvect6set_bwEj.exit ], [ false, %40 ], [ true, %47 ], [ true, %51 ]
  ret i1 %.0
}